target datalayout = "e-m:e-p270:32:32-p271:32:32-p272:64:64-i64:64-i128:128-f80:128-n8:16:32:64-S128"
target triple = "x86_64-pc-linux-gnu"

%"class.clang::SemaCUDA" = type <{ %"class.clang::SemaBase", %"class.llvm::DenseSet", %"class.llvm::DenseMap.0", %"struct.clang::SemaCUDA::CUDATargetContext", i32, [4 x i8] }>
%"class.clang::SemaBase" = type { ptr }
%"class.llvm::DenseSet" = type { %"class.llvm::detail::DenseSetImpl" }
%"class.llvm::detail::DenseSetImpl" = type { %"class.llvm::DenseMap" }
%"class.llvm::DenseMap" = type <{ ptr, i32, i32, i32, [4 x i8] }>
%"class.llvm::DenseMap.0" = type <{ ptr, i32, i32, i32, [4 x i8] }>
%"struct.clang::SemaCUDA::CUDATargetContext" = type { i32, i32, ptr }
%"class.clang::SourceLocation" = type { i32 }
%"class.clang::LangOptionsBase" = type <{ i64, i64, i64, i64, i64, i64, i64, i64, i64, i64, i64, i64, i64, i64, i64, i64, i64, i64, i64, i64, i64, i64, i64, i64, i64, i16, [2 x i8] }>
%"class.llvm::PointerIntPair.1006" = type { %"struct.llvm::detail::PunnedPointer.1007" }
%"struct.llvm::detail::PunnedPointer.1007" = type { [8 x i8] }
%"class.llvm::PointerUnion" = type { %"class.llvm::pointer_union_detail::PointerUnionMembers" }
%"class.llvm::pointer_union_detail::PointerUnionMembers" = type { %"class.llvm::pointer_union_detail::PointerUnionMembers.1008" }
%"class.llvm::pointer_union_detail::PointerUnionMembers.1008" = type { %"class.llvm::pointer_union_detail::PointerUnionMembers.1009" }
%"class.llvm::pointer_union_detail::PointerUnionMembers.1009" = type { %"class.llvm::PointerIntPair.1010" }
%"class.llvm::PointerIntPair.1010" = type { %"struct.llvm::detail::PunnedPointer.1011" }
%"struct.llvm::detail::PunnedPointer.1011" = type { [8 x i8] }
%"class.clang::Decl" = type <{ ptr, %"class.llvm::PointerIntPair.1006", %"class.llvm::PointerUnion", %"class.clang::SourceLocation", i32, i8, [7 x i8] }>

; Function Attrs: mustprogress nounwind uwtable
define linkonce_odr hidden noundef zeroext i1 @_ZN5clang17CXXDestructorDecl11classofKindENS_4Decl4KindE(i32 noundef %0) #0 comdat align 2 {
  %2 = alloca i32, align 4
  store i32 %0, ptr %2, align 4
  %3 = load i32, ptr %2, align 4
  %4 = icmp eq i32 %3, 33
  ret i1 %4
}

; Function Attrs: mustprogress nounwind uwtable
define linkonce_odr hidden noundef zeroext i1 @_ZN5clang18CXXConstructorDecl11classofKindENS_4Decl4KindE(i32 noundef %0) #0 comdat align 2 {
  %2 = alloca i32, align 4
  store i32 %0, ptr %2, align 4
  %3 = load i32, ptr %2, align 4
  %4 = icmp eq i32 %3, 35
  ret i1 %4
}

; Function Attrs: mustprogress nounwind uwtable
define linkonce_odr hidden noundef i32 @_ZNK5clang4Decl7getKindEv(ptr noundef nonnull align 8 dereferenceable(33) %0) #0 comdat align 2 {
  %2 = alloca ptr, align 8
  store ptr %0, ptr %2, align 8
  %3 = load ptr, ptr %2, align 8
  %4 = getelementptr inbounds nuw %"class.clang::Decl", ptr %3, i32 0, i32 4
  %5 = load i32, ptr %4, align 4
  %6 = and i32 %5, 127
  ret i32 %6
}

; Function Attrs: mustprogress nounwind uwtable
define linkonce_odr hidden noundef zeroext i1 @_ZN5clang17CXXDestructorDecl7classofEPKNS_4DeclE(ptr noundef %0) #0 comdat align 2 {
  %2 = alloca ptr, align 8
  store ptr %0, ptr %2, align 8
  %3 = load ptr, ptr %2, align 8
  %4 = call noundef i32 @_ZNK5clang4Decl7getKindEv(ptr noundef nonnull align 8 dereferenceable(33) %3)
  %5 = call noundef zeroext i1 @_ZN5clang17CXXDestructorDecl11classofKindENS_4Decl4KindE(i32 noundef %4)
  ret i1 %5
}

; Function Attrs: mustprogress nounwind uwtable
define linkonce_odr hidden noundef zeroext i1 @_ZN5clang18CXXConstructorDecl7classofEPKNS_4DeclE(ptr noundef %0) #0 comdat align 2 {
  %2 = alloca ptr, align 8
  store ptr %0, ptr %2, align 8
  %3 = load ptr, ptr %2, align 8
  %4 = call noundef i32 @_ZNK5clang4Decl7getKindEv(ptr noundef nonnull align 8 dereferenceable(33) %3)
  %5 = call noundef zeroext i1 @_ZN5clang18CXXConstructorDecl11classofKindENS_4Decl4KindE(i32 noundef %4)
  ret i1 %5
}

; Function Attrs: mustprogress nounwind uwtable
define linkonce_odr hidden noundef zeroext i1 @_ZN4llvm8isa_implIN5clang17CXXDestructorDeclENS1_12FunctionDeclEvE4doitERKS3_(ptr noundef nonnull align 8 dereferenceable(168) %0) #0 comdat align 2 {
  %2 = alloca ptr, align 8
  store ptr %0, ptr %2, align 8
  %3 = load ptr, ptr %2, align 8
  %4 = call noundef zeroext i1 @_ZN5clang17CXXDestructorDecl7classofEPKNS_4DeclE(ptr noundef %3)
  ret i1 %4
}

; Function Attrs: mustprogress nounwind uwtable
define linkonce_odr hidden noundef zeroext i1 @_ZN4llvm8isa_implIN5clang18CXXConstructorDeclENS1_12FunctionDeclEvE4doitERKS3_(ptr noundef nonnull align 8 dereferenceable(168) %0) #0 comdat align 2 {
  %2 = alloca ptr, align 8
  store ptr %0, ptr %2, align 8
  %3 = load ptr, ptr %2, align 8
  %4 = call noundef zeroext i1 @_ZN5clang18CXXConstructorDecl7classofEPKNS_4DeclE(ptr noundef %3)
  ret i1 %4
}

; Function Attrs: mustprogress nounwind uwtable
define linkonce_odr hidden noundef zeroext i1 @_ZN4llvm11isa_impl_clIN5clang17CXXDestructorDeclEPKNS1_12FunctionDeclEE4doitES5_(ptr noundef %0) #0 comdat align 2 {
  %2 = alloca ptr, align 8
  store ptr %0, ptr %2, align 8
  %3 = load ptr, ptr %2, align 8
  %4 = call noundef zeroext i1 @_ZN4llvm8isa_implIN5clang17CXXDestructorDeclENS1_12FunctionDeclEvE4doitERKS3_(ptr noundef nonnull align 8 dereferenceable(168) %3)
  ret i1 %4
}

; Function Attrs: mustprogress nounwind uwtable
define linkonce_odr hidden noundef zeroext i1 @_ZN4llvm11isa_impl_clIN5clang18CXXConstructorDeclEPKNS1_12FunctionDeclEE4doitES5_(ptr noundef %0) #0 comdat align 2 {
  %2 = alloca ptr, align 8
  store ptr %0, ptr %2, align 8
  %3 = load ptr, ptr %2, align 8
  %4 = call noundef zeroext i1 @_ZN4llvm8isa_implIN5clang18CXXConstructorDeclENS1_12FunctionDeclEvE4doitERKS3_(ptr noundef nonnull align 8 dereferenceable(168) %3)
  ret i1 %4
}

; Function Attrs: mustprogress nounwind uwtable
define linkonce_odr hidden noundef zeroext i1 @_ZN4llvm13isa_impl_wrapIN5clang17CXXDestructorDeclEPKNS1_12FunctionDeclES5_E4doitERKS5_(ptr noundef nonnull align 8 dereferenceable(8) %0) #0 comdat align 2 {
  %2 = alloca ptr, align 8
  store ptr %0, ptr %2, align 8
  %3 = load ptr, ptr %2, align 8
  %4 = load ptr, ptr %3, align 8
  %5 = call noundef zeroext i1 @_ZN4llvm11isa_impl_clIN5clang17CXXDestructorDeclEPKNS1_12FunctionDeclEE4doitES5_(ptr noundef %4)
  ret i1 %5
}

; Function Attrs: mustprogress nounwind uwtable
define linkonce_odr hidden noundef zeroext i1 @_ZN4llvm13isa_impl_wrapIN5clang18CXXConstructorDeclEPKNS1_12FunctionDeclES5_E4doitERKS5_(ptr noundef nonnull align 8 dereferenceable(8) %0) #0 comdat align 2 {
  %2 = alloca ptr, align 8
  store ptr %0, ptr %2, align 8
  %3 = load ptr, ptr %2, align 8
  %4 = load ptr, ptr %3, align 8
  %5 = call noundef zeroext i1 @_ZN4llvm11isa_impl_clIN5clang18CXXConstructorDeclEPKNS1_12FunctionDeclEE4doitES5_(ptr noundef %4)
  ret i1 %5
}

; Function Attrs: mustprogress nounwind uwtable
define linkonce_odr hidden noundef zeroext i1 @_ZN4llvm13isa_impl_wrapIN5clang17CXXDestructorDeclEKPKNS1_12FunctionDeclES5_E4doitERS6_(ptr noundef nonnull align 8 dereferenceable(8) %0) #0 comdat align 2 {
  %2 = alloca ptr, align 8
  %3 = alloca ptr, align 8
  store ptr %0, ptr %2, align 8
  %4 = load ptr, ptr %2, align 8
  %5 = call noundef ptr @_ZN4llvm13simplify_typeIKPKN5clang12FunctionDeclEE18getSimplifiedValueERS5_(ptr noundef nonnull align 8 dereferenceable(8) %4)
  store ptr %5, ptr %3, align 8
  %6 = call noundef zeroext i1 @_ZN4llvm13isa_impl_wrapIN5clang17CXXDestructorDeclEPKNS1_12FunctionDeclES5_E4doitERKS5_(ptr noundef nonnull align 8 dereferenceable(8) %3)
  ret i1 %6
}

; Function Attrs: mustprogress nounwind uwtable
define linkonce_odr hidden noundef zeroext i1 @_ZN4llvm13isa_impl_wrapIN5clang18CXXConstructorDeclEKPKNS1_12FunctionDeclES5_E4doitERS6_(ptr noundef nonnull align 8 dereferenceable(8) %0) #0 comdat align 2 {
  %2 = alloca ptr, align 8
  %3 = alloca ptr, align 8
  store ptr %0, ptr %2, align 8
  %4 = load ptr, ptr %2, align 8
  %5 = call noundef ptr @_ZN4llvm13simplify_typeIKPKN5clang12FunctionDeclEE18getSimplifiedValueERS5_(ptr noundef nonnull align 8 dereferenceable(8) %4)
  store ptr %5, ptr %3, align 8
  %6 = call noundef zeroext i1 @_ZN4llvm13isa_impl_wrapIN5clang18CXXConstructorDeclEPKNS1_12FunctionDeclES5_E4doitERKS5_(ptr noundef nonnull align 8 dereferenceable(8) %3)
  ret i1 %6
}

; Function Attrs: mustprogress nounwind uwtable
define linkonce_odr hidden noundef nonnull align 8 dereferenceable(8) ptr @_ZN4llvm13simplify_typeIPKN5clang12FunctionDeclEE18getSimplifiedValueERS4_(ptr noundef nonnull align 8 dereferenceable(8) %0) #0 comdat align 2 {
  %2 = alloca ptr, align 8
  store ptr %0, ptr %2, align 8
  %3 = load ptr, ptr %2, align 8
  ret ptr %3
}

; Function Attrs: mustprogress nounwind uwtable
define linkonce_odr hidden noundef zeroext i1 @_ZN4llvm14CastIsPossibleIN5clang17CXXDestructorDeclEPKNS1_12FunctionDeclEvE10isPossibleERKS5_(ptr noundef nonnull align 8 dereferenceable(8) %0) #0 comdat align 2 {
  %2 = alloca ptr, align 8
  store ptr %0, ptr %2, align 8
  %3 = load ptr, ptr %2, align 8
  %4 = call noundef zeroext i1 @_ZN4llvm13isa_impl_wrapIN5clang17CXXDestructorDeclEKPKNS1_12FunctionDeclES5_E4doitERS6_(ptr noundef nonnull align 8 dereferenceable(8) %3)
  ret i1 %4
}

; Function Attrs: mustprogress nounwind uwtable
define linkonce_odr hidden noundef zeroext i1 @_ZN4llvm14CastIsPossibleIN5clang18CXXConstructorDeclEPKNS1_12FunctionDeclEvE10isPossibleERKS5_(ptr noundef nonnull align 8 dereferenceable(8) %0) #0 comdat align 2 {
  %2 = alloca ptr, align 8
  store ptr %0, ptr %2, align 8
  %3 = load ptr, ptr %2, align 8
  %4 = call noundef zeroext i1 @_ZN4llvm13isa_impl_wrapIN5clang18CXXConstructorDeclEKPKNS1_12FunctionDeclES5_E4doitERS6_(ptr noundef nonnull align 8 dereferenceable(8) %3)
  ret i1 %4
}

; Function Attrs: mustprogress nounwind uwtable
define linkonce_odr hidden noundef ptr @_ZN4llvm13simplify_typeIKPKN5clang12FunctionDeclEE18getSimplifiedValueERS5_(ptr noundef nonnull align 8 dereferenceable(8) %0) #0 comdat align 2 {
  %2 = alloca ptr, align 8
  store ptr %0, ptr %2, align 8
  %3 = load ptr, ptr %2, align 8
  %4 = call noundef nonnull align 8 dereferenceable(8) ptr @_ZN4llvm13simplify_typeIPKN5clang12FunctionDeclEE18getSimplifiedValueERS4_(ptr noundef nonnull align 8 dereferenceable(8) %3)
  %5 = load ptr, ptr %4, align 8
  ret ptr %5
}

; Function Attrs: mustprogress nounwind uwtable
define linkonce_odr hidden noundef zeroext i1 @_ZN4llvm8CastInfoIN5clang17CXXDestructorDeclEKPKNS1_12FunctionDeclEvE10isPossibleERS6_(ptr noundef nonnull align 8 dereferenceable(8) %0) #0 comdat align 2 {
  %2 = alloca ptr, align 8
  %3 = alloca ptr, align 8
  store ptr %0, ptr %2, align 8
  %4 = load ptr, ptr %2, align 8
  %5 = call noundef ptr @_ZN4llvm13simplify_typeIKPKN5clang12FunctionDeclEE18getSimplifiedValueERS5_(ptr noundef nonnull align 8 dereferenceable(8) %4)
  store ptr %5, ptr %3, align 8
  %6 = call noundef zeroext i1 @_ZN4llvm14CastIsPossibleIN5clang17CXXDestructorDeclEPKNS1_12FunctionDeclEvE10isPossibleERKS5_(ptr noundef nonnull align 8 dereferenceable(8) %3)
  ret i1 %6
}

; Function Attrs: mustprogress nounwind uwtable
define linkonce_odr hidden noundef zeroext i1 @_ZN4llvm8CastInfoIN5clang18CXXConstructorDeclEKPKNS1_12FunctionDeclEvE10isPossibleERS6_(ptr noundef nonnull align 8 dereferenceable(8) %0) #0 comdat align 2 {
  %2 = alloca ptr, align 8
  %3 = alloca ptr, align 8
  store ptr %0, ptr %2, align 8
  %4 = load ptr, ptr %2, align 8
  %5 = call noundef ptr @_ZN4llvm13simplify_typeIKPKN5clang12FunctionDeclEE18getSimplifiedValueERS5_(ptr noundef nonnull align 8 dereferenceable(8) %4)
  store ptr %5, ptr %3, align 8
  %6 = call noundef zeroext i1 @_ZN4llvm14CastIsPossibleIN5clang18CXXConstructorDeclEPKNS1_12FunctionDeclEvE10isPossibleERKS5_(ptr noundef nonnull align 8 dereferenceable(8) %3)
  ret i1 %6
}

; Function Attrs: mustprogress nounwind uwtable
define linkonce_odr hidden noundef zeroext i1 @_ZN4llvm3isaIN5clang17CXXDestructorDeclEPKNS1_12FunctionDeclEEEbRKT0_(ptr noundef nonnull align 8 dereferenceable(8) %0) #0 comdat {
  %2 = alloca ptr, align 8
  store ptr %0, ptr %2, align 8
  %3 = load ptr, ptr %2, align 8
  %4 = call noundef zeroext i1 @_ZN4llvm8CastInfoIN5clang17CXXDestructorDeclEKPKNS1_12FunctionDeclEvE10isPossibleERS6_(ptr noundef nonnull align 8 dereferenceable(8) %3)
  ret i1 %4
}

; Function Attrs: mustprogress nounwind uwtable
define linkonce_odr hidden noundef zeroext i1 @_ZN4llvm3isaIN5clang18CXXConstructorDeclEPKNS1_12FunctionDeclEEEbRKT0_(ptr noundef nonnull align 8 dereferenceable(8) %0) #0 comdat {
  %2 = alloca ptr, align 8
  store ptr %0, ptr %2, align 8
  %3 = load ptr, ptr %2, align 8
  %4 = call noundef zeroext i1 @_ZN4llvm8CastInfoIN5clang18CXXConstructorDeclEKPKNS1_12FunctionDeclEvE10isPossibleERS6_(ptr noundef nonnull align 8 dereferenceable(8) %3)
  ret i1 %4
}

; Function Attrs: mustprogress nounwind uwtable
define dso_local noundef i32 @_ZN5clang8SemaCUDA18IdentifyPreferenceEPKNS_12FunctionDeclES3_(ptr noundef nonnull align 8 dereferenceable(76) %0, ptr noundef %1, ptr noundef %2) #0 align 2 {
  %4 = alloca i32, align 4
  %5 = alloca ptr, align 8
  %6 = alloca ptr, align 8
  %7 = alloca ptr, align 8
  %8 = alloca i32, align 4
  %9 = alloca i32, align 4
  store ptr %0, ptr %5, align 8
  store ptr %1, ptr %6, align 8
  store ptr %2, ptr %7, align 8
  %10 = load ptr, ptr %5, align 8
  %11 = load ptr, ptr %6, align 8
  %12 = icmp eq ptr %11, null
  br i1 %12, label %13, label %28

13:                                               ; preds = %3
  %14 = getelementptr inbounds nuw %"class.clang::SemaCUDA", ptr %10, i32 0, i32 3
  %15 = getelementptr inbounds nuw %"struct.clang::SemaCUDA::CUDATargetContext", ptr %14, i32 0, i32 1
  %16 = load i32, ptr %15, align 4
  %17 = icmp eq i32 %16, 1
  br i1 %17, label %18, label %28

18:                                               ; preds = %13
  %19 = getelementptr inbounds nuw %"class.clang::SemaCUDA", ptr %10, i32 0, i32 3
  %20 = getelementptr inbounds nuw %"struct.clang::SemaCUDA::CUDATargetContext", ptr %19, i32 0, i32 0
  %21 = load i32, ptr %20, align 8
  %22 = icmp eq i32 %21, 0
  br i1 %22, label %23, label %28

23:                                               ; preds = %18
  %24 = call noundef zeroext i1 @_ZN4llvm3isaIN5clang18CXXConstructorDeclEPKNS1_12FunctionDeclEEEbRKT0_(ptr noundef nonnull align 8 dereferenceable(8) %7)
  br i1 %24, label %27, label %25

25:                                               ; preds = %23
  %26 = call noundef zeroext i1 @_ZN4llvm3isaIN5clang17CXXDestructorDeclEPKNS1_12FunctionDeclEEEbRKT0_(ptr noundef nonnull align 8 dereferenceable(8) %7)
  br i1 %26, label %27, label %28

27:                                               ; preds = %25, %23
  store i32 2, ptr %4, align 4
  br label %141

28:                                               ; preds = %25, %18, %13, %3
  %29 = load ptr, ptr %6, align 8
  %30 = call noundef i32 @_ZN5clang8SemaCUDA14IdentifyTargetEPKNS_12FunctionDeclEb(ptr noundef nonnull align 8 dereferenceable(76) %10, ptr noundef %29, i1 noundef zeroext false)
  store i32 %30, ptr %8, align 4
  %31 = load ptr, ptr %7, align 8
  %32 = call noundef i32 @_ZN5clang8SemaCUDA14IdentifyTargetEPKNS_12FunctionDeclEb(ptr noundef nonnull align 8 dereferenceable(76) %10, ptr noundef %31, i1 noundef zeroext false)
  store i32 %32, ptr %9, align 4
  %33 = load i32, ptr %8, align 4
  %34 = icmp eq i32 %33, 4
  br i1 %34, label %38, label %35

35:                                               ; preds = %28
  %36 = load i32, ptr %9, align 4
  %37 = icmp eq i32 %36, 4
  br i1 %37, label %38, label %39

38:                                               ; preds = %35, %28
  store i32 0, ptr %4, align 4
  br label %141

39:                                               ; preds = %35
  %40 = load i32, ptr %9, align 4
  %41 = icmp eq i32 %40, 1
  br i1 %41, label %42, label %49

42:                                               ; preds = %39
  %43 = load i32, ptr %8, align 4
  %44 = icmp eq i32 %43, 1
  br i1 %44, label %48, label %45

45:                                               ; preds = %42
  %46 = load i32, ptr %8, align 4
  %47 = icmp eq i32 %46, 0
  br i1 %47, label %48, label %49

48:                                               ; preds = %45, %42
  store i32 0, ptr %4, align 4
  br label %141

49:                                               ; preds = %45, %39
  %50 = load i32, ptr %9, align 4
  %51 = icmp eq i32 %50, 3
  br i1 %51, label %52, label %53

52:                                               ; preds = %49
  store i32 2, ptr %4, align 4
  br label %141

53:                                               ; preds = %49
  %54 = load i32, ptr %9, align 4
  %55 = load i32, ptr %8, align 4
  %56 = icmp eq i32 %54, %55
  br i1 %56, label %69, label %57

57:                                               ; preds = %53
  %58 = load i32, ptr %8, align 4
  %59 = icmp eq i32 %58, 2
  br i1 %59, label %60, label %63

60:                                               ; preds = %57
  %61 = load i32, ptr %9, align 4
  %62 = icmp eq i32 %61, 1
  br i1 %62, label %69, label %63

63:                                               ; preds = %60, %57
  %64 = load i32, ptr %8, align 4
  %65 = icmp eq i32 %64, 1
  br i1 %65, label %66, label %70

66:                                               ; preds = %63
  %67 = load i32, ptr %9, align 4
  %68 = icmp eq i32 %67, 0
  br i1 %68, label %69, label %70

69:                                               ; preds = %66, %60, %53
  store i32 4, ptr %4, align 4
  br label %141

70:                                               ; preds = %66, %63
  %71 = call noundef nonnull align 8 dereferenceable(841) ptr @_ZNK5clang8SemaBase11getLangOptsEv(ptr noundef nonnull align 8 dereferenceable(8) %10)
  %72 = getelementptr inbounds nuw %"class.clang::LangOptionsBase", ptr %71, i32 0, i32 12
  %73 = load i64, ptr %72, align 8
  %74 = lshr i64 %73, 8
  %75 = and i64 %74, 1
  %76 = trunc i64 %75 to i32
  %77 = icmp ne i32 %76, 0
  br i1 %77, label %78, label %91

78:                                               ; preds = %70
  %79 = load i32, ptr %8, align 4
  %80 = icmp eq i32 %79, 1
  br i1 %80, label %87, label %81

81:                                               ; preds = %78
  %82 = load i32, ptr %8, align 4
  %83 = icmp eq i32 %82, 0
  br i1 %83, label %87, label %84

84:                                               ; preds = %81
  %85 = load i32, ptr %8, align 4
  %86 = icmp eq i32 %85, 3
  br i1 %86, label %87, label %91

87:                                               ; preds = %84, %81, %78
  %88 = load i32, ptr %9, align 4
  %89 = icmp eq i32 %88, 2
  br i1 %89, label %90, label %91

90:                                               ; preds = %87
  store i32 2, ptr %4, align 4
  br label %141

91:                                               ; preds = %87, %84, %70
  %92 = load i32, ptr %8, align 4
  %93 = icmp eq i32 %92, 3
  br i1 %93, label %94, label %121

94:                                               ; preds = %91
  %95 = call noundef nonnull align 8 dereferenceable(841) ptr @_ZNK5clang8SemaBase11getLangOptsEv(ptr noundef nonnull align 8 dereferenceable(8) %10)
  %96 = getelementptr inbounds nuw %"class.clang::LangOptionsBase", ptr %95, i32 0, i32 11
  %97 = load i64, ptr %96, align 8
  %98 = lshr i64 %97, 11
  %99 = and i64 %98, 1
  %100 = trunc i64 %99 to i32
  %101 = icmp ne i32 %100, 0
  br i1 %101, label %102, label %105

102:                                              ; preds = %94
  %103 = load i32, ptr %9, align 4
  %104 = icmp eq i32 %103, 0
  br i1 %104, label %119, label %105

105:                                              ; preds = %102, %94
  %106 = call noundef nonnull align 8 dereferenceable(841) ptr @_ZNK5clang8SemaBase11getLangOptsEv(ptr noundef nonnull align 8 dereferenceable(8) %10)
  %107 = getelementptr inbounds nuw %"class.clang::LangOptionsBase", ptr %106, i32 0, i32 11
  %108 = load i64, ptr %107, align 8
  %109 = lshr i64 %108, 11
  %110 = and i64 %109, 1
  %111 = trunc i64 %110 to i32
  %112 = icmp ne i32 %111, 0
  br i1 %112, label %120, label %113

113:                                              ; preds = %105
  %114 = load i32, ptr %9, align 4
  %115 = icmp eq i32 %114, 2
  br i1 %115, label %119, label %116

116:                                              ; preds = %113
  %117 = load i32, ptr %9, align 4
  %118 = icmp eq i32 %117, 1
  br i1 %118, label %119, label %120

119:                                              ; preds = %116, %113, %102
  store i32 3, ptr %4, align 4
  br label %141

120:                                              ; preds = %116, %105
  store i32 1, ptr %4, align 4
  br label %141

121:                                              ; preds = %91
  %122 = load i32, ptr %8, align 4
  %123 = icmp eq i32 %122, 2
  br i1 %123, label %124, label %127

124:                                              ; preds = %121
  %125 = load i32, ptr %9, align 4
  %126 = icmp eq i32 %125, 0
  br i1 %126, label %139, label %127

127:                                              ; preds = %124, %121
  %128 = load i32, ptr %8, align 4
  %129 = icmp eq i32 %128, 0
  br i1 %129, label %130, label %133

130:                                              ; preds = %127
  %131 = load i32, ptr %9, align 4
  %132 = icmp eq i32 %131, 2
  br i1 %132, label %139, label %133

133:                                              ; preds = %130, %127
  %134 = load i32, ptr %8, align 4
  %135 = icmp eq i32 %134, 1
  br i1 %135, label %136, label %140

136:                                              ; preds = %133
  %137 = load i32, ptr %9, align 4
  %138 = icmp eq i32 %137, 2
  br i1 %138, label %139, label %140

139:                                              ; preds = %136, %130, %124
  store i32 0, ptr %4, align 4
  br label %141

140:                                              ; preds = %136, %133
  unreachable

141:                                              ; preds = %139, %120, %119, %90, %69, %52, %48, %38, %27
  %142 = load i32, ptr %4, align 4
  ret i32 %142
}