; Function Attrs: mustprogress nounwind uwtable
define dso_local noundef range(i32 0, 5) i32 @_ZN5clang8SemaCUDA18IdentifyPreferenceEPKNS_12FunctionDeclES3_(ptr noundef nonnull align 8 dereferenceable(76) %0, ptr noundef %1, ptr noundef %2) local_unnamed_addr #0 align 2 {
  %4 = icmp eq ptr %1, null
  %5 = getelementptr inbounds nuw i8, ptr %0, i64 60
  %6 = load i32, ptr %5, align 4
  %7 = icmp eq i32 %6, 1
  %or.cond57 = select i1 %4, i1 %7, i1 false
  %8 = getelementptr inbounds nuw i8, ptr %0, i64 56
  %9 = load i32, ptr %8, align 8
  %10 = icmp eq i32 %9, 0
  %or.cond60 = select i1 %or.cond57, i1 %10, i1 false
  br i1 %or.cond60, label %11, label %15

11:                                               ; preds = %3
  %12 = getelementptr inbounds nuw i8, ptr %2, i64 28
  %13 = load i32, ptr %12, align 4
  %14 = and i32 %13, 127
  switch i32 %14, label %15 [
    i32 35, label %58
    i32 33, label %58
  ]

15:                                               ; preds = %11, %3
  %16 = tail call noundef i32 @_ZN5clang8SemaCUDA14IdentifyTargetEPKNS_12FunctionDeclEb(ptr noundef nonnull align 8 dereferenceable(76) %0, ptr noundef %1, i1 noundef zeroext false)
  %17 = tail call noundef i32 @_ZN5clang8SemaCUDA14IdentifyTargetEPKNS_12FunctionDeclEb(ptr noundef nonnull align 8 dereferenceable(76) %0, ptr noundef %2, i1 noundef zeroext false)
  %18 = icmp eq i32 %16, 4
  %19 = icmp eq i32 %17, 4
  %or.cond = or i1 %18, %19
  br i1 %or.cond, label %58, label %20

20:                                               ; preds = %15
  %21 = icmp eq i32 %17, 1
  %or.cond3 = icmp ult i32 %16, 2
  %or.cond61 = and i1 %or.cond3, %21
  br i1 %or.cond61, label %58, label %22

22:                                               ; preds = %20
  %23 = icmp eq i32 %17, 3
  br i1 %23, label %58, label %24

24:                                               ; preds = %22
  %25 = icmp eq i32 %17, %16
  br i1 %25, label %58, label %26

26:                                               ; preds = %24
  %27 = icmp eq i32 %16, 2
  %or.cond5 = and i1 %27, %21
  br i1 %or.cond5, label %58, label %28

28:                                               ; preds = %26
  %29 = icmp eq i32 %16, 1
  %30 = icmp eq i32 %17, 0
  %or.cond7 = and i1 %29, %30
  br i1 %or.cond7, label %58, label %31

31:                                               ; preds = %28
  %32 = tail call noundef nonnull align 8 dereferenceable(841) ptr @_ZNK5clang8SemaBase11getLangOptsEv(ptr noundef nonnull align 8 dereferenceable(8) %0) #13
  %33 = getelementptr inbounds nuw i8, ptr %32, i64 96
  %34 = load i64, ptr %33, align 8
  %35 = and i64 %34, 256
  %.not = icmp eq i64 %35, 0
  br i1 %.not, label %39, label %36

36:                                               ; preds = %31
  %37 = icmp eq i32 %16, 3
  %or.cond11 = or i1 %or.cond3, %37
  %38 = icmp eq i32 %17, 2
  %or.cond13 = and i1 %or.cond11, %38
  br i1 %or.cond13, label %58, label %39

39:                                               ; preds = %36, %31
  %40 = icmp eq i32 %16, 3
  br i1 %40, label %41, label %53

41:                                               ; preds = %39
  %42 = tail call noundef nonnull align 8 dereferenceable(841) ptr @_ZNK5clang8SemaBase11getLangOptsEv(ptr noundef nonnull align 8 dereferenceable(8) %0) #13
  %43 = getelementptr inbounds nuw i8, ptr %42, i64 88
  %44 = load i64, ptr %43, align 8
  %45 = and i64 %44, 2048
  %46 = icmp ne i64 %45, 0
  %or.cond15 = and i1 %30, %46
  br i1 %or.cond15, label %58, label %47

47:                                               ; preds = %41
  %48 = tail call noundef nonnull align 8 dereferenceable(841) ptr @_ZNK5clang8SemaBase11getLangOptsEv(ptr noundef nonnull align 8 dereferenceable(8) %0) #13
  %49 = getelementptr inbounds nuw i8, ptr %48, i64 88
  %50 = load i64, ptr %49, align 8
  %51 = and i64 %50, 2048
  %.not54 = icmp eq i64 %51, 0
  %52 = add i32 %17, -1
  %or.cond17 = icmp ult i32 %52, 2
  %or.cond62 = and i1 %or.cond17, %.not54
  %spec.select = select i1 %or.cond62, i32 3, i32 1
  br label %58

53:                                               ; preds = %39
  %or.cond19 = and i1 %27, %30
  br i1 %or.cond19, label %58, label %54

54:                                               ; preds = %53
  %55 = icmp eq i32 %16, 0
  %56 = icmp eq i32 %17, 2
  %or.cond21 = and i1 %55, %56
  br i1 %or.cond21, label %58, label %57

57:                                               ; preds = %54
  tail call void @llvm.assume(i1 %29)
  tail call void @llvm.assume(i1 %56)
  br label %58

58:                                               ; preds = %11, %11, %47, %53, %54, %57, %41, %36, %24, %26, %28, %22, %20, %15
  %.0 = phi i32 [ 2, %11 ], [ 0, %15 ], [ 0, %20 ], [ 2, %22 ], [ 4, %28 ], [ 4, %26 ], [ 4, %24 ], [ 2, %36 ], [ 3, %41 ], [ 0, %57 ], [ 0, %54 ], [ 0, %53 ], [ %spec.select, %47 ], [ 2, %11 ]
  ret i32 %.0
}